target datalayout = "e-m:e-p270:32:32-p271:32:32-p272:64:64-i64:64-i128:128-f80:128-n8:16:32:64-S128"
target triple = "x86_64-pc-linux-gnu"

%"class.sat::status" = type { i32, i32, ptr }

; Function Attrs: mustprogress nounwind uwtable
define linkonce_odr hidden void @_ZN3sat6statusC2ERKS0_(ptr noundef nonnull align 8 dereferenceable(16) %0, ptr noundef nonnull align 8 dereferenceable(16) %1) unnamed_addr #5 comdat align 2 {
  %3 = alloca ptr, align 8
  %4 = alloca ptr, align 8
  store ptr %0, ptr %3, align 8, !tbaa !659
  store ptr %1, ptr %4, align 8, !tbaa !659
  %5 = load ptr, ptr %3, align 8
  %6 = getelementptr inbounds nuw %"class.sat::status", ptr %5, i32 0, i32 0
  %7 = load ptr, ptr %4, align 8, !tbaa !659
  %8 = getelementptr inbounds nuw %"class.sat::status", ptr %7, i32 0, i32 0
  %9 = load i32, ptr %8, align 8, !tbaa !663
  store i32 %9, ptr %6, align 8, !tbaa !663
  %10 = getelementptr inbounds nuw %"class.sat::status", ptr %5, i32 0, i32 1
  %11 = load ptr, ptr %4, align 8, !tbaa !659
  %12 = getelementptr inbounds nuw %"class.sat::status", ptr %11, i32 0, i32 1
  %13 = load i32, ptr %12, align 4, !tbaa !666
  store i32 %13, ptr %10, align 4, !tbaa !666
  %14 = getelementptr inbounds nuw %"class.sat::status", ptr %5, i32 0, i32 2
  %15 = load ptr, ptr %4, align 8, !tbaa !659
  %16 = getelementptr inbounds nuw %"class.sat::status", ptr %15, i32 0, i32 2
  %17 = load ptr, ptr %16, align 8, !tbaa !667
  store ptr %17, ptr %14, align 8, !tbaa !667
  ret void
}

; Function Attrs: mustprogress uwtable
define hidden void @_ZN3euf6solver9on_clauseEjPKN3sat7literalENS1_6statusE(ptr noundef nonnull align 8 dereferenceable(8456) %0, i32 noundef %1, ptr noundef %2, ptr noundef %3) unnamed_addr #4 align 2 {
  %5 = alloca ptr, align 8
  %6 = alloca i32, align 4
  %7 = alloca ptr, align 8
  %8 = alloca ptr, align 8
  %9 = alloca %"class.sat::status", align 8
  %10 = alloca %"class.sat::status", align 8
  %11 = alloca %"class.sat::status", align 8
  %12 = alloca %"class.sat::status", align 8
  store ptr %0, ptr %5, align 8, !tbaa !3
  store i32 %1, ptr %6, align 4, !tbaa !421
  store ptr %2, ptr %7, align 8, !tbaa !453
  store ptr %3, ptr %8, align 8, !tbaa !659
  %13 = load ptr, ptr %5, align 8
  %14 = load i32, ptr %6, align 4, !tbaa !421
  %15 = load ptr, ptr %7, align 8, !tbaa !453
  call void @_ZN3sat6statusC2ERKS0_(ptr noundef nonnull align 8 dereferenceable(16) %9, ptr noundef nonnull align 8 dereferenceable(16) %3)
  call void @_ZN3euf6solver8on_lemmaEjPKN3sat7literalENS1_6statusE(ptr noundef nonnull align 8 dereferenceable(8456) %13, i32 noundef %14, ptr noundef %15, ptr noundef %9)
  %16 = load i32, ptr %6, align 4, !tbaa !421
  %17 = load ptr, ptr %7, align 8, !tbaa !453
  call void @_ZN3sat6statusC2ERKS0_(ptr noundef nonnull align 8 dereferenceable(16) %10, ptr noundef nonnull align 8 dereferenceable(16) %3)
  call void @_ZN3euf6solver8on_proofEjPKN3sat7literalENS1_6statusE(ptr noundef nonnull align 8 dereferenceable(8456) %13, i32 noundef %16, ptr noundef %17, ptr noundef %10)
  %18 = load i32, ptr %6, align 4, !tbaa !421
  %19 = load ptr, ptr %7, align 8, !tbaa !453
  call void @_ZN3sat6statusC2ERKS0_(ptr noundef nonnull align 8 dereferenceable(16) %11, ptr noundef nonnull align 8 dereferenceable(16) %3)
  call void @_ZN3euf6solver8on_checkEjPKN3sat7literalENS1_6statusE(ptr noundef nonnull align 8 dereferenceable(8456) %13, i32 noundef %18, ptr noundef %19, ptr noundef %11)
  %20 = load i32, ptr %6, align 4, !tbaa !421
  %21 = load ptr, ptr %7, align 8, !tbaa !453
  call void @_ZN3sat6statusC2ERKS0_(ptr noundef nonnull align 8 dereferenceable(16) %12, ptr noundef nonnull align 8 dereferenceable(16) %3)
  call void @_ZN3euf6solver12on_clause_ehEjPKN3sat7literalENS1_6statusE(ptr noundef nonnull align 8 dereferenceable(8456) %13, i32 noundef %20, ptr noundef %21, ptr noundef %12)
  ret void
}