; Function Attrs: mustprogress uwtable
define hidden void @_ZN3euf6solver9on_clauseEjPKN3sat7literalENS1_6statusE(ptr noundef nonnull align 8 dereferenceable(8456) %0, i32 noundef %1, ptr noundef readonly captures(none) %2, ptr noundef readonly captures(none) %3) unnamed_addr #3 align 2 {
  %5 = alloca %"class.sat::status", align 8
  %6 = alloca %"class.sat::status", align 8
  %7 = alloca %"class.sat::status", align 8
  %8 = alloca %"class.sat::status", align 8
  %9 = load i32, ptr %3, align 8, !tbaa !456
  store i32 %9, ptr %5, align 8, !tbaa !456
  %10 = getelementptr inbounds nuw i8, ptr %5, i64 4
  %11 = getelementptr inbounds nuw i8, ptr %3, i64 4
  %12 = load i32, ptr %11, align 4, !tbaa !463
  store i32 %12, ptr %10, align 4, !tbaa !463
  %13 = getelementptr inbounds nuw i8, ptr %5, i64 8
  %14 = getelementptr inbounds nuw i8, ptr %3, i64 8
  %15 = load ptr, ptr %14, align 8, !tbaa !464
  store ptr %15, ptr %13, align 8, !tbaa !464
  call void @_ZN3euf6solver8on_lemmaEjPKN3sat7literalENS1_6statusE(ptr noundef nonnull align 8 dereferenceable(8456) %0, i32 noundef %1, ptr noundef %2, ptr noundef nonnull %5)
  %16 = load i32, ptr %3, align 8, !tbaa !456
  store i32 %16, ptr %6, align 8, !tbaa !456
  %17 = getelementptr inbounds nuw i8, ptr %6, i64 4
  %18 = load i32, ptr %11, align 4, !tbaa !463
  store i32 %18, ptr %17, align 4, !tbaa !463
  %19 = getelementptr inbounds nuw i8, ptr %6, i64 8
  %20 = load ptr, ptr %14, align 8, !tbaa !464
  store ptr %20, ptr %19, align 8, !tbaa !464
  call void @_ZN3euf6solver8on_proofEjPKN3sat7literalENS1_6statusE(ptr noundef nonnull align 8 dereferenceable(8456) %0, i32 noundef %1, ptr noundef %2, ptr noundef nonnull %6)
  %21 = load i32, ptr %3, align 8, !tbaa !456
  store i32 %21, ptr %7, align 8, !tbaa !456
  %22 = getelementptr inbounds nuw i8, ptr %7, i64 4
  %23 = load i32, ptr %11, align 4, !tbaa !463
  store i32 %23, ptr %22, align 4, !tbaa !463
  %24 = getelementptr inbounds nuw i8, ptr %7, i64 8
  %25 = load ptr, ptr %14, align 8, !tbaa !464
  store ptr %25, ptr %24, align 8, !tbaa !464
  call void @_ZN3euf6solver8on_checkEjPKN3sat7literalENS1_6statusE(ptr noundef nonnull align 8 dereferenceable(8456) %0, i32 noundef %1, ptr noundef %2, ptr noundef nonnull %7)
  %26 = load i32, ptr %3, align 8, !tbaa !456
  store i32 %26, ptr %8, align 8, !tbaa !456
  %27 = getelementptr inbounds nuw i8, ptr %8, i64 4
  %28 = load i32, ptr %11, align 4, !tbaa !463
  store i32 %28, ptr %27, align 4, !tbaa !463
  %29 = getelementptr inbounds nuw i8, ptr %8, i64 8
  %30 = load ptr, ptr %14, align 8, !tbaa !464
  store ptr %30, ptr %29, align 8, !tbaa !464
  call void @_ZN3euf6solver12on_clause_ehEjPKN3sat7literalENS1_6statusE(ptr noundef nonnull align 8 dereferenceable(8456) %0, i32 noundef %1, ptr noundef %2, ptr noundef nonnull %8)
  ret void
}